; Function Attrs: nounwind sspstrong uwtable
define internal noundef i64 @grep_iter_i(i64 %0, i64 noundef %1, i32 noundef %2, ptr noundef %3, i64 %4) #0 {
  %6 = alloca i64, align 8
  %7 = inttoptr i64 %1 to ptr
  switch i32 %2, label %10 [
    i32 0, label %rb_enum_values_pack.exit
    i32 1, label %8
  ]

8:                                                ; preds = %5
  %9 = load i64, ptr %3, align 8, !tbaa !7
  br label %rb_enum_values_pack.exit

10:                                               ; preds = %5
  %11 = sext i32 %2 to i64
  %12 = tail call i64 @rb_ary_new_from_values(i64 noundef %11, ptr noundef %3) #14
  br label %rb_enum_values_pack.exit

rb_enum_values_pack.exit:                         ; preds = %5, %8, %10
  %.0.i = phi i64 [ %9, %8 ], [ %12, %10 ], [ 4, %5 ]
  store i64 %.0.i, ptr %6, align 8, !tbaa !7
  %13 = getelementptr inbounds nuw i8, ptr %7, i64 16
  %14 = load i64, ptr %13, align 8, !tbaa !60
  %15 = call i64 @rb_funcallv(i64 noundef %14, i64 noundef 141, i32 noundef 1, ptr noundef nonnull %6) #14
  %16 = and i64 %15, -5
  %17 = icmp ne i64 %16, 0
  %18 = getelementptr inbounds nuw i8, ptr %7, i64 32
  %19 = load i64, ptr %18, align 8, !tbaa !22
  %20 = and i64 %19, -5
  %21 = icmp ne i64 %20, 0
  %22 = xor i1 %17, %21
  br i1 %22, label %37, label %23

23:                                               ; preds = %rb_enum_values_pack.exit
  %24 = getelementptr inbounds nuw i8, ptr %7, i64 24
  %25 = load i64, ptr %24, align 8, !tbaa !67
  %26 = load i64, ptr %6, align 8, !tbaa !7
  %27 = icmp sgt i32 %2, 1
  br i1 %27, label %28, label %30

28:                                               ; preds = %23
  %29 = call i64 @rb_yield_force_blockarg(i64 noundef %26) #14
  br label %enum_yield.exit

30:                                               ; preds = %23
  %31 = icmp eq i32 %2, 1
  br i1 %31, label %32, label %34

32:                                               ; preds = %30
  %33 = call i64 @rb_yield(i64 noundef %26) #14
  br label %enum_yield.exit

34:                                               ; preds = %30
  %35 = call i64 @rb_yield_values2(i32 noundef 0, ptr noundef null) #14
  br label %enum_yield.exit

enum_yield.exit:                                  ; preds = %28, %32, %34
  %.0.i6 = phi i64 [ %29, %28 ], [ %33, %32 ], [ %35, %34 ]
  %36 = call i64 @rb_ary_push(i64 noundef %25, i64 noundef %.0.i6) #14
  br label %37

37:                                               ; preds = %enum_yield.exit, %rb_enum_values_pack.exit
  ret i64 4
}